; Function Attrs: mustprogress nounwind uwtable
define internal noundef zeroext i1 @_ZN12_GLOBAL__N_124TNoContractionPropagator10visitUnaryEN7glslang6TVisitEPNS1_12TIntermUnaryE(ptr nocapture nonnull readnone align 8 %0, i32 %1, ptr noundef %2) unnamed_addr #0 align 2 {
  %4 = getelementptr inbounds i8, ptr %2, i64 184
  %5 = load i32, ptr %4, align 8
  %6 = tail call fastcc noundef zeroext i1 @_ZN12_GLOBAL__N_121isArithmeticOperationEN7glslang9TOperatorE(i32 noundef %5)
  br i1 %6, label %7, label %19

7:                                                ; preds = %3
  %8 = load ptr, ptr %2, align 8
  %9 = getelementptr inbounds i8, ptr %8, i64 248
  %10 = load ptr, ptr %9, align 8
  %11 = tail call noundef nonnull align 8 dereferenceable(152) ptr %10(ptr noundef nonnull align 8 dereferenceable(184) %2) #16
  %12 = load ptr, ptr %11, align 8
  %13 = getelementptr inbounds i8, ptr %12, i64 80
  %14 = load ptr, ptr %13, align 8
  %15 = tail call noundef nonnull align 8 dereferenceable(80) ptr %14(ptr noundef nonnull align 8 dereferenceable(152) %11) #16
  %16 = getelementptr inbounds i8, ptr %15, i64 8
  %17 = load i64, ptr %16, align 8
  %18 = or i64 %17, 68719476736
  store i64 %18, ptr %16, align 8
  br label %19

19:                                               ; preds = %7, %3
  ret i1 true
}